target datalayout = "e-m:e-p270:32:32-p271:32:32-p272:64:64-i64:64-i128:128-f80:128-n8:16:32:64-S128"
target triple = "x86_64-pc-linux-gnu"

%struct.config_bool = type { %struct.config_generic, ptr, i8, ptr, ptr, ptr, i8, ptr }
%struct.config_generic = type { ptr, i32, i32, ptr, ptr, i32, i32, i32, i32, i32, i32, i32, i32, i32, ptr, ptr, %struct.dlist_node, %struct.slist_node, %struct.slist_node, ptr, ptr, i32 }
%struct.dlist_node = type { ptr, ptr }
%struct.slist_node = type { ptr }
%struct.config_int = type { %struct.config_generic, ptr, i32, i32, i32, ptr, ptr, ptr, i32, ptr }
%struct.config_real = type { %struct.config_generic, ptr, double, double, double, ptr, ptr, ptr, double, ptr }
%struct.config_string = type { %struct.config_generic, ptr, ptr, ptr, ptr, ptr, ptr, ptr }
%struct.config_enum = type { %struct.config_generic, ptr, i32, ptr, ptr, ptr, ptr, i32, ptr }
%struct.config_enum_entry = type { ptr, i32, i8 }

@.str.3 = private unnamed_addr constant [6 x i8] c"guc.c\00", align 1
@.str.8 = private unnamed_addr constant [1 x i8] zeroinitializer, align 1
@.str.55 = private unnamed_addr constant [37 x i8] c"could not find enum option %d for %s\00", align 1
@__func__.config_enum_lookup_by_value = private unnamed_addr constant [28 x i8] c"config_enum_lookup_by_value\00", align 1
@GetConfigOption.buffer = internal global [256 x i8] zeroinitializer, align 16
@.str.69 = private unnamed_addr constant [34 x i8] c"permission denied to examine \22%s\22\00", align 1
@.str.70 = private unnamed_addr constant [72 x i8] c"Only roles with privileges of the \22%s\22 role may examine this parameter.\00", align 1
@.str.71 = private unnamed_addr constant [21 x i8] c"pg_read_all_settings\00", align 1
@__func__.GetConfigOption = private unnamed_addr constant [16 x i8] c"GetConfigOption\00", align 1
@.str.72 = private unnamed_addr constant [3 x i8] c"on\00", align 1
@.str.73 = private unnamed_addr constant [4 x i8] c"off\00", align 1
@.str.74 = private unnamed_addr constant [3 x i8] c"%d\00", align 1
@.str.75 = private unnamed_addr constant [3 x i8] c"%g\00", align 1

; Function Attrs: nounwind uwtable
define dso_local ptr @config_enum_lookup_by_value(ptr noundef %0, i32 noundef %1) #0 {
  %3 = alloca ptr, align 8
  %4 = alloca ptr, align 8
  %5 = alloca i32, align 4
  %6 = alloca ptr, align 8
  %7 = alloca i32, align 4
  store ptr %0, ptr %4, align 8
  store i32 %1, ptr %5, align 4
  call void @llvm.lifetime.start.p0(i64 8, ptr %6) #16
  %8 = load ptr, ptr %4, align 8
  %9 = getelementptr inbounds nuw %struct.config_enum, ptr %8, i32 0, i32 3
  %10 = load ptr, ptr %9, align 8
  store ptr %10, ptr %6, align 8
  br label %11

11:                                               ; preds = %32, %2
  %12 = load ptr, ptr %6, align 8
  %13 = icmp ne ptr %12, null
  br i1 %13, label %14, label %19

14:                                               ; preds = %11
  %15 = load ptr, ptr %6, align 8
  %16 = getelementptr inbounds nuw %struct.config_enum_entry, ptr %15, i32 0, i32 0
  %17 = load ptr, ptr %16, align 8
  %18 = icmp ne ptr %17, null
  br label %19

19:                                               ; preds = %14, %11
  %20 = phi i1 [ false, %11 ], [ %18, %14 ]
  br i1 %20, label %21, label %35

21:                                               ; preds = %19
  %22 = load ptr, ptr %6, align 8
  %23 = getelementptr inbounds nuw %struct.config_enum_entry, ptr %22, i32 0, i32 1
  %24 = load i32, ptr %23, align 8
  %25 = load i32, ptr %5, align 4
  %26 = icmp eq i32 %24, %25
  br i1 %26, label %27, label %31

27:                                               ; preds = %21
  %28 = load ptr, ptr %6, align 8
  %29 = getelementptr inbounds nuw %struct.config_enum_entry, ptr %28, i32 0, i32 0
  %30 = load ptr, ptr %29, align 8
  store ptr %30, ptr %3, align 8
  store i32 1, ptr %7, align 4
  br label %51

31:                                               ; preds = %21
  br label %32

32:                                               ; preds = %31
  %33 = load ptr, ptr %6, align 8
  %34 = getelementptr inbounds nuw %struct.config_enum_entry, ptr %33, i32 1
  store ptr %34, ptr %6, align 8
  br label %11, !llvm.loop !43

35:                                               ; preds = %19
  br label %36

36:                                               ; preds = %35
  br i1 true, label %37, label %39

37:                                               ; preds = %36
  %38 = call zeroext i1 @errstart_cold(i32 noundef 21, ptr noundef null) #18
  br i1 %38, label %41, label %48

39:                                               ; preds = %36
  %40 = call zeroext i1 @errstart(i32 noundef 21, ptr noundef null)
  br i1 %40, label %41, label %48

41:                                               ; preds = %39, %37
  %42 = load i32, ptr %5, align 4
  %43 = load ptr, ptr %4, align 8
  %44 = getelementptr inbounds nuw %struct.config_enum, ptr %43, i32 0, i32 0
  %45 = getelementptr inbounds nuw %struct.config_generic, ptr %44, i32 0, i32 0
  %46 = load ptr, ptr %45, align 8
  %47 = call i32 (ptr, ...) @errmsg_internal(ptr noundef @.str.55, i32 noundef %42, ptr noundef %46)
  call void @errfinish(ptr noundef @.str.3, i32 noundef 3034, ptr noundef @__func__.config_enum_lookup_by_value)
  br label %48

48:                                               ; preds = %41, %39, %37
  unreachable

49:                                               ; No predecessors!
  br label %50

50:                                               ; preds = %49
  store ptr null, ptr %3, align 8
  store i32 1, ptr %7, align 4
  br label %51

51:                                               ; preds = %50, %27
  call void @llvm.lifetime.end.p0(i64 8, ptr %6) #16
  %52 = load ptr, ptr %3, align 8
  ret ptr %52
}

; Function Attrs: nounwind uwtable
define dso_local ptr @GetConfigOption(ptr noundef %0, i1 noundef zeroext %1, i1 noundef zeroext %2) #0 {
  %4 = alloca ptr, align 8
  %5 = alloca ptr, align 8
  %6 = alloca i8, align 1
  %7 = alloca i8, align 1
  %8 = alloca ptr, align 8
  %9 = alloca i32, align 4
  store ptr %0, ptr %5, align 8
  %10 = zext i1 %1 to i8
  store i8 %10, ptr %6, align 1
  %11 = zext i1 %2 to i8
  store i8 %11, ptr %7, align 1
  call void @llvm.lifetime.start.p0(i64 8, ptr %8) #16
  %12 = load ptr, ptr %5, align 8
  %13 = load i8, ptr %6, align 1, !range !4, !noundef !5
  %14 = trunc i8 %13 to i1
  %15 = call ptr @find_option(ptr noundef %12, i1 noundef zeroext false, i1 noundef zeroext %14, i32 noundef 21)
  store ptr %15, ptr %8, align 8
  %16 = load ptr, ptr %8, align 8
  %17 = icmp eq ptr %16, null
  br i1 %17, label %18, label %19

18:                                               ; preds = %3
  store ptr null, ptr %4, align 8
  store i32 1, ptr %9, align 4
  br label %84

19:                                               ; preds = %3
  %20 = load i8, ptr %7, align 1, !range !4, !noundef !5
  %21 = trunc i8 %20 to i1
  br i1 %21, label %22, label %39

22:                                               ; preds = %19
  %23 = load ptr, ptr %8, align 8
  %24 = call zeroext i1 @ConfigOptionIsVisible(ptr noundef %23)
  br i1 %24, label %39, label %25

25:                                               ; preds = %22
  br label %26

26:                                               ; preds = %25
  br i1 true, label %27, label %29

27:                                               ; preds = %26
  %28 = call zeroext i1 @errstart_cold(i32 noundef 21, ptr noundef null) #18
  br i1 %28, label %31, label %36

29:                                               ; preds = %26
  %30 = call zeroext i1 @errstart(i32 noundef 21, ptr noundef null)
  br i1 %30, label %31, label %36

31:                                               ; preds = %29, %27
  %32 = call i32 @errcode(i32 noundef 16797828)
  %33 = load ptr, ptr %5, align 8
  %34 = call i32 (ptr, ...) @errmsg(ptr noundef @.str.69, ptr noundef %33)
  %35 = call i32 (ptr, ...) @errdetail(ptr noundef @.str.70, ptr noundef @.str.71)
  call void @errfinish(ptr noundef @.str.3, i32 noundef 4369, ptr noundef @__func__.GetConfigOption)
  br label %36

36:                                               ; preds = %31, %29, %27
  unreachable

37:                                               ; No predecessors!
  br label %38

38:                                               ; preds = %37
  br label %39

39:                                               ; preds = %38, %22, %19
  %40 = load ptr, ptr %8, align 8
  %41 = getelementptr inbounds nuw %struct.config_generic, ptr %40, i32 0, i32 6
  %42 = load i32, ptr %41, align 4
  switch i32 %42, label %83 [
    i32 0, label %43
    i32 1, label %50
    i32 2, label %56
    i32 3, label %62
    i32 4, label %76
  ]

43:                                               ; preds = %39
  %44 = load ptr, ptr %8, align 8
  %45 = getelementptr inbounds nuw %struct.config_bool, ptr %44, i32 0, i32 1
  %46 = load ptr, ptr %45, align 8
  %47 = load i8, ptr %46, align 1, !range !4, !noundef !5
  %48 = trunc i8 %47 to i1
  %49 = select i1 %48, ptr @.str.72, ptr @.str.73
  store ptr %49, ptr %4, align 8
  store i32 1, ptr %9, align 4
  br label %84

50:                                               ; preds = %39
  %51 = load ptr, ptr %8, align 8
  %52 = getelementptr inbounds nuw %struct.config_int, ptr %51, i32 0, i32 1
  %53 = load ptr, ptr %52, align 8
  %54 = load i32, ptr %53, align 4
  %55 = call i32 (ptr, i64, ptr, ...) @pg_snprintf(ptr noundef @GetConfigOption.buffer, i64 noundef 256, ptr noundef @.str.74, i32 noundef %54)
  store ptr @GetConfigOption.buffer, ptr %4, align 8
  store i32 1, ptr %9, align 4
  br label %84

56:                                               ; preds = %39
  %57 = load ptr, ptr %8, align 8
  %58 = getelementptr inbounds nuw %struct.config_real, ptr %57, i32 0, i32 1
  %59 = load ptr, ptr %58, align 8
  %60 = load double, ptr %59, align 8
  %61 = call i32 (ptr, i64, ptr, ...) @pg_snprintf(ptr noundef @GetConfigOption.buffer, i64 noundef 256, ptr noundef @.str.75, double noundef %60)
  store ptr @GetConfigOption.buffer, ptr %4, align 8
  store i32 1, ptr %9, align 4
  br label %84

62:                                               ; preds = %39
  %63 = load ptr, ptr %8, align 8
  %64 = getelementptr inbounds nuw %struct.config_string, ptr %63, i32 0, i32 1
  %65 = load ptr, ptr %64, align 8
  %66 = load ptr, ptr %65, align 8
  %67 = icmp ne ptr %66, null
  br i1 %67, label %68, label %73

68:                                               ; preds = %62
  %69 = load ptr, ptr %8, align 8
  %70 = getelementptr inbounds nuw %struct.config_string, ptr %69, i32 0, i32 1
  %71 = load ptr, ptr %70, align 8
  %72 = load ptr, ptr %71, align 8
  br label %74

73:                                               ; preds = %62
  br label %74

74:                                               ; preds = %73, %68
  %75 = phi ptr [ %72, %68 ], [ @.str.8, %73 ]
  store ptr %75, ptr %4, align 8
  store i32 1, ptr %9, align 4
  br label %84

76:                                               ; preds = %39
  %77 = load ptr, ptr %8, align 8
  %78 = load ptr, ptr %8, align 8
  %79 = getelementptr inbounds nuw %struct.config_enum, ptr %78, i32 0, i32 1
  %80 = load ptr, ptr %79, align 8
  %81 = load i32, ptr %80, align 4
  %82 = call ptr @config_enum_lookup_by_value(ptr noundef %77, i32 noundef %81)
  store ptr %82, ptr %4, align 8
  store i32 1, ptr %9, align 4
  br label %84

83:                                               ; preds = %39
  store ptr null, ptr %4, align 8
  store i32 1, ptr %9, align 4
  br label %84

84:                                               ; preds = %83, %76, %74, %56, %50, %43, %18
  call void @llvm.lifetime.end.p0(i64 8, ptr %8) #16
  %85 = load ptr, ptr %4, align 8
  ret ptr %85
}