; Function Attrs: nounwind uwtable
define dso_local ptr @GetConfigOption(ptr noundef %0, i1 noundef zeroext %1, i1 noundef zeroext %2) local_unnamed_addr #0 {
  %4 = tail call ptr @find_option(ptr noundef %0, i1 noundef zeroext false, i1 noundef zeroext %1, i32 noundef 21)
  %5 = icmp eq ptr %4, null
  br i1 %5, label %config_enum_lookup_by_value.exit, label %6

6:                                                ; preds = %3
  br i1 %2, label %7, label %14

7:                                                ; preds = %6
  %8 = tail call zeroext i1 @ConfigOptionIsVisible(ptr noundef nonnull %4) #29
  br i1 %8, label %14, label %9

9:                                                ; preds = %7
  %10 = tail call zeroext i1 @errstart_cold(i32 noundef 21, ptr noundef null) #31
  tail call void @llvm.assume(i1 %10)
  %11 = tail call i32 @errcode(i32 noundef 16797828) #29
  %12 = tail call i32 (ptr, ...) @errmsg(ptr noundef nonnull @.str.69, ptr noundef %0) #29
  %13 = tail call i32 (ptr, ...) @errdetail(ptr noundef nonnull @.str.70, ptr noundef nonnull @.str.71) #29
  tail call void @errfinish(ptr noundef nonnull @.str.3, i32 noundef 4369, ptr noundef nonnull @__func__.GetConfigOption) #29
  unreachable

14:                                               ; preds = %7, %6
  %15 = getelementptr inbounds nuw i8, ptr %4, i64 36
  %16 = load i32, ptr %15, align 4
  switch i32 %16, label %config_enum_lookup_by_value.exit [
    i32 0, label %17
    i32 1, label %23
    i32 2, label %28
    i32 3, label %33
    i32 4, label %37
  ]

17:                                               ; preds = %14
  %18 = getelementptr inbounds nuw i8, ptr %4, i64 144
  %19 = load ptr, ptr %18, align 8
  %20 = load i8, ptr %19, align 1, !range !4, !noundef !5
  %21 = trunc nuw i8 %20 to i1
  %22 = select i1 %21, ptr @.str.72, ptr @.str.73
  br label %config_enum_lookup_by_value.exit

23:                                               ; preds = %14
  %24 = getelementptr inbounds nuw i8, ptr %4, i64 144
  %25 = load ptr, ptr %24, align 8
  %26 = load i32, ptr %25, align 4
  %27 = tail call i32 (ptr, i64, ptr, ...) @pg_snprintf(ptr noundef nonnull @GetConfigOption.buffer, i64 noundef 256, ptr noundef nonnull @.str.74, i32 noundef %26) #29
  br label %config_enum_lookup_by_value.exit

28:                                               ; preds = %14
  %29 = getelementptr inbounds nuw i8, ptr %4, i64 144
  %30 = load ptr, ptr %29, align 8
  %31 = load double, ptr %30, align 8
  %32 = tail call i32 (ptr, i64, ptr, ...) @pg_snprintf(ptr noundef nonnull @GetConfigOption.buffer, i64 noundef 256, ptr noundef nonnull @.str.75, double noundef %31) #29
  br label %config_enum_lookup_by_value.exit

33:                                               ; preds = %14
  %34 = getelementptr inbounds nuw i8, ptr %4, i64 144
  %35 = load ptr, ptr %34, align 8
  %36 = load ptr, ptr %35, align 8
  %.not = icmp eq ptr %36, null
  %spec.select = select i1 %.not, ptr @.str.8, ptr %36
  br label %config_enum_lookup_by_value.exit

37:                                               ; preds = %14
  %38 = getelementptr inbounds nuw i8, ptr %4, i64 144
  %39 = load ptr, ptr %38, align 8
  %40 = load i32, ptr %39, align 4
  %41 = getelementptr inbounds nuw i8, ptr %4, i64 160
  %42 = load ptr, ptr %41, align 8
  %.not11.i = icmp eq ptr %42, null
  br i1 %.not11.i, label %.critedge.i, label %.lr.ph.i.preheader

.lr.ph.i.preheader:                               ; preds = %37
  %43 = load ptr, ptr %42, align 8
  %.not10.i17 = icmp eq ptr %43, null
  br i1 %.not10.i17, label %.critedge.i, label %.lr.ph.preheader

.lr.ph.preheader:                                 ; preds = %.lr.ph.i.preheader
  %44 = getelementptr inbounds nuw i8, ptr %42, i64 8
  %45 = load i32, ptr %44, align 8
  %46 = icmp eq i32 %45, %40
  br i1 %46, label %config_enum_lookup_by_value.exit, label %.lr.ph.i

.lr.ph.i:                                         ; preds = %.lr.ph.preheader, %.lr.ph
  %.012.i1822 = phi ptr [ %47, %.lr.ph ], [ %42, %.lr.ph.preheader ]
  %47 = getelementptr inbounds nuw i8, ptr %.012.i1822, i64 16
  %48 = load ptr, ptr %47, align 8
  %.not10.i = icmp eq ptr %48, null
  br i1 %.not10.i, label %.critedge.i, label %.lr.ph

.lr.ph:                                           ; preds = %.lr.ph.i
  %49 = getelementptr inbounds nuw i8, ptr %.012.i1822, i64 24
  %50 = load i32, ptr %49, align 8
  %51 = icmp eq i32 %50, %40
  br i1 %51, label %config_enum_lookup_by_value.exit, label %.lr.ph.i

.critedge.i:                                      ; preds = %.lr.ph.i, %.lr.ph.i.preheader, %37
  %52 = tail call zeroext i1 @errstart_cold(i32 noundef 21, ptr noundef null) #31
  tail call void @llvm.assume(i1 %52)
  %53 = load ptr, ptr %4, align 8
  %54 = tail call i32 (ptr, ...) @errmsg_internal(ptr noundef nonnull @.str.55, i32 noundef %40, ptr noundef %53) #29
  tail call void @errfinish(ptr noundef nonnull @.str.3, i32 noundef 3034, ptr noundef nonnull @__func__.config_enum_lookup_by_value) #29
  unreachable

config_enum_lookup_by_value.exit:                 ; preds = %.lr.ph, %.lr.ph.preheader, %14, %3, %33, %28, %23, %17
  %.0 = phi ptr [ %spec.select, %33 ], [ @GetConfigOption.buffer, %28 ], [ @GetConfigOption.buffer, %23 ], [ %22, %17 ], [ null, %3 ], [ null, %14 ], [ %43, %.lr.ph.preheader ], [ %48, %.lr.ph ]
  ret ptr %.0
}